(dp1
S'files'
p2
(dp3
S'_Users_viniciusteles__rvm_lib_python2_7_site-packages_unittest2_suite'
p4
(dp5
S'index'
p6
(dp7
S'html_filename'
p8
S'_Users_viniciusteles__rvm_lib_python2_7_site-packages_unittest2_suite.html'
p9
sS'name'
p10
S'/Users/viniciusteles/.rvm/lib/python2.7/site-packages/unittest2/suite'
p11
sS'nums'
p12
ccopy_reg
_reconstructor
p13
(ccoverage.results
Numbers
p14
c__builtin__
object
p15
NtRp16
(dp17
S'n_files'
p18
I1
sS'n_branches'
p19
I0
sS'n_statements'
p20
I198
sS'n_excluded'
p21
I0
sS'n_partial_branches'
p22
I0
sS'n_missing'
p23
I79
sS'n_missing_branches'
p24
I0
sbssS'hash'
p25
S'\xdc\x14\xac7\x91c\x84\xbb\xa2\xc3pJ\xbc\x02\x16\x03'
p26
ssS'_Users_viniciusteles__rvm_lib_python2_7_site-packages_unittest2_collector'
p27
(dp28
g6
(dp29
S'html_filename'
p30
S'_Users_viniciusteles__rvm_lib_python2_7_site-packages_unittest2_collector.html'
p31
sS'name'
p32
S'/Users/viniciusteles/.rvm/lib/python2.7/site-packages/unittest2/collector'
p33
sS'nums'
p34
g13
(g14
g15
NtRp35
(dp36
g18
I1
sg19
I0
sg20
I7
sg21
I0
sg22
I0
sg23
I3
sg24
I0
sbssg25
S'"\x8c\x87\xc5\x19s\xfe7 \x93\x0e\x1c\x08\x95\x08\xc3'
p37
ssS'_Users_viniciusteles__rvm_lib_python2_7_site-packages_unittest2_compatibility'
p38
(dp39
g6
(dp40
g30
S'_Users_viniciusteles__rvm_lib_python2_7_site-packages_unittest2_compatibility.html'
p41
sg32
S'/Users/viniciusteles/.rvm/lib/python2.7/site-packages/unittest2/compatibility'
p42
sg34
g13
(g14
g15
NtRp43
(dp44
g18
I1
sg19
I0
sg20
I42
sg21
I0
sg22
I0
sg23
I33
sg24
I0
sbssg25
S'\xd6\xca/qs\xda2{\x86iI\xa4^\x1dT\x9b'
p45
ssS'_Users_viniciusteles__rvm_lib_python2_7_site-packages_unittest2_case'
p46
(dp47
g6
(dp48
S'html_filename'
p49
S'_Users_viniciusteles__rvm_lib_python2_7_site-packages_unittest2_case.html'
p50
sS'name'
p51
S'/Users/viniciusteles/.rvm/lib/python2.7/site-packages/unittest2/case'
p52
sS'nums'
p53
g13
(g14
g15
NtRp54
(dp55
g18
I1
sg19
I0
sg20
I576
sg21
I0
sg22
I0
sg23
I406
sg24
I0
sbssg25
S'\xf3\xa0\xb6\xa6\x1d\x85r@~\x82\x17\x86\x13\x80\xf0E'
p56
ssS'_Users_viniciusteles__rvm_lib_python2_7_site-packages_unittest2_loader'
p57
(dp58
g6
(dp59
g8
S'_Users_viniciusteles__rvm_lib_python2_7_site-packages_unittest2_loader.html'
p60
sg10
S'/Users/viniciusteles/.rvm/lib/python2.7/site-packages/unittest2/loader'
p61
sg12
g13
(g14
g15
NtRp62
(dp63
g18
I1
sg19
I0
sg20
I202
sg21
I0
sg22
I0
sg23
I140
sg24
I0
sbssg25
S')\x12\x89\x86+\xb1\x92\xba\x93\xe2`K\x05\x95\x00\x01'
p64
ssS'_Users_viniciusteles__rvm_lib_python2_7_site-packages_unittest2___init__'
p65
(dp66
g6
(dp67
g30
S'_Users_viniciusteles__rvm_lib_python2_7_site-packages_unittest2___init__.html'
p68
sg32
S'/Users/viniciusteles/.rvm/lib/python2.7/site-packages/unittest2/__init__'
p69
sg34
g13
(g14
g15
NtRp70
(dp71
g18
I1
sg19
I0
sg20
I17
sg21
I0
sg22
I0
sg23
I2
sg24
I0
sbssg25
S'\xb0\xfb\x8ce\x1f\xef\xc0\x17\xeb\xc5*\xa0\x8c\xa9\xa1\xe6'
p72
ssS'Game'
p73
(dp74
g6
(dp75
S'html_filename'
p76
S'Game.html'
p77
sS'name'
p78
S'Game'
p79
sS'nums'
p80
g13
(g14
g15
NtRp81
(dp82
g18
I1
sg19
I0
sg20
I29
sg21
I0
sg22
I0
sg23
I0
sg24
I0
sbssg25
S'M\x7f[\xd3.\xea\xc7\\\xe7w*\xb7\x81\xed\x95\xdf'
p83
ssS'_Users_viniciusteles__rvm_lib_python2_7_site-packages_unittest2_util'
p84
(dp85
g6
(dp86
g30
S'_Users_viniciusteles__rvm_lib_python2_7_site-packages_unittest2_util.html'
p87
sg32
S'/Users/viniciusteles/.rvm/lib/python2.7/site-packages/unittest2/util'
p88
sg34
g13
(g14
g15
NtRp89
(dp90
g18
I1
sg19
I0
sg20
I74
sg21
I0
sg22
I0
sg23
I67
sg24
I0
sbssg25
S')\xb0\xd3\xe9\xb4\x86\xbf\x1f\xaaI\xefA\xbf\x9a\xd3\x99'
p91
ssS'_Users_viniciusteles__rvm_lib_python2_7_site-packages_unittest2_result'
p92
(dp93
g6
(dp94
g49
S'_Users_viniciusteles__rvm_lib_python2_7_site-packages_unittest2_result.html'
p95
sg51
S'/Users/viniciusteles/.rvm/lib/python2.7/site-packages/unittest2/result'
p96
sg53
g13
(g14
g15
NtRp97
(dp98
g18
I1
sg19
I0
sg20
I112
sg21
I0
sg22
I0
sg23
I59
sg24
I0
sbssg25
S'\x9bX\xe5f"yY\xa4\xac\x06Re\xd0\x12\x11W'
p99
ssS'_Users_viniciusteles__rvm_lib_python2_7_site-packages_unittest2_runner'
p100
(dp101
g6
(dp102
g49
S'_Users_viniciusteles__rvm_lib_python2_7_site-packages_unittest2_runner.html'
p103
sg51
S'/Users/viniciusteles/.rvm/lib/python2.7/site-packages/unittest2/runner'
p104
sg53
g13
(g14
g15
NtRp105
(dp106
g18
I1
sg19
I0
sg20
I156
sg21
I0
sg22
I0
sg23
I60
sg24
I0
sbssg25
S'\xcf\xeb\x8d5\x0c\xf2\x05W\xa2?\xcd\x12\x87\x86\xcaV'
p107
ssS'_Users_viniciusteles__rvm_lib_python2_7_site-packages_unittest2_main'
p108
(dp109
g6
(dp110
g49
S'_Users_viniciusteles__rvm_lib_python2_7_site-packages_unittest2_main.html'
p111
sg51
S'/Users/viniciusteles/.rvm/lib/python2.7/site-packages/unittest2/main'
p112
sg53
g13
(g14
g15
NtRp113
(dp114
g18
I1
sg19
I0
sg20
I137
sg21
I0
sg22
I0
sg23
I78
sg24
I0
sbssg25
S'V\x16\x8b0{\xf0\x8ei\xb5\xcb\xef\x893\xff3Q'
p115
ssS'_Users_viniciusteles__rvm_lib_python2_7_site-packages_unittest2_signals'
p116
(dp117
g6
(dp118
g49
S'_Users_viniciusteles__rvm_lib_python2_7_site-packages_unittest2_signals.html'
p119
sg51
S'/Users/viniciusteles/.rvm/lib/python2.7/site-packages/unittest2/signals'
p120
sg53
g13
(g14
g15
NtRp121
(dp122
g18
I1
sg19
I0
sg20
I39
sg21
I0
sg22
I0
sg23
I25
sg24
I0
sbssg25
S'\xfe\x8e\xd9\xd2\x18\x0c\x04Z\x8a?ut\xcfB\xbf\x1e'
p123
ssS'test_game'
p124
(dp125
g6
(dp126
g8
S'test_game.html'
p127
sg10
S'test_game'
p128
sg12
g13
(g14
g15
NtRp129
(dp130
g18
I1
sg19
I0
sg20
I24
sg21
I0
sg22
I0
sg23
I0
sg24
I0
sbssg25
S'!v\x03\xb2\xae\xf9"\xf7M\xa2"\x07\x06\xf3\x8e\xab'
p131
sssS'version'
p132
S'3.7.1'
p133
sS'settings'
p134
S'\x98\xa8x\xfe"r\xb5K\x98\xb1N\\\x99\x9e\xf3\xe5'
p135
sS'format'
p136
I1
s.